; ModuleID = '1397.c'
source_filename = "1397.c"
target datalayout = "e-m:e-p270:32:32-p271:32:32-p272:64:64-i64:64-f80:128-n8:16:32:64-S128"
target triple = "x86_64-pc-linux-gnu"

@.str = private unnamed_addr constant [3 x i8] c"%d\00", align 1
@.str.1 = private unnamed_addr constant [4 x i8] c"%lf\00", align 1
@.str.2 = private unnamed_addr constant [6 x i8] c"%.5f\0A\00", align 1

; Function Attrs: noinline nounwind uwtable
define dso_local void @main() #0 {
  %1 = alloca [100 x [1000 x double*]], align 16
  %2 = alloca double, align 8
  %3 = alloca double, align 8
  %4 = alloca i32, align 4
  %5 = alloca [100 x i32], align 16
  %6 = alloca i32, align 4
  %7 = alloca i32, align 4
  %8 = call i32 (i8*, ...) @__isoc99_scanf(i8* getelementptr inbounds ([3 x i8], [3 x i8]* @.str, i64 0, i64 0), i32* %4)
  store i32 0, i32* %6, align 4
  br label %9

9:                                                ; preds = %47, %0
  %10 = load i32, i32* %6, align 4
  %11 = load i32, i32* %4, align 4
  %12 = icmp slt i32 %10, %11
  br i1 %12, label %13, label %50

13:                                               ; preds = %9
  %14 = load i32, i32* %6, align 4
  %15 = sext i32 %14 to i64
  %16 = getelementptr inbounds [100 x i32], [100 x i32]* %5, i64 0, i64 %15
  %17 = call i32 (i8*, ...) @__isoc99_scanf(i8* getelementptr inbounds ([3 x i8], [3 x i8]* @.str, i64 0, i64 0), i32* %16)
  store i32 0, i32* %7, align 4
  br label %18

18:                                               ; preds = %43, %13
  %19 = load i32, i32* %7, align 4
  %20 = load i32, i32* %6, align 4
  %21 = sext i32 %20 to i64
  %22 = getelementptr inbounds [100 x i32], [100 x i32]* %5, i64 0, i64 %21
  %23 = load i32, i32* %22, align 4
  %24 = icmp slt i32 %19, %23
  br i1 %24, label %25, label %46

25:                                               ; preds = %18
  %26 = call noalias i8* @malloc(i64 8) #3
  %27 = bitcast i8* %26 to float*
  %28 = bitcast float* %27 to double*
  %29 = load i32, i32* %6, align 4
  %30 = sext i32 %29 to i64
  %31 = getelementptr inbounds [100 x [1000 x double*]], [100 x [1000 x double*]]* %1, i64 0, i64 %30
  %32 = load i32, i32* %7, align 4
  %33 = sext i32 %32 to i64
  %34 = getelementptr inbounds [1000 x double*], [1000 x double*]* %31, i64 0, i64 %33
  store double* %28, double** %34, align 8
  %35 = load i32, i32* %6, align 4
  %36 = sext i32 %35 to i64
  %37 = getelementptr inbounds [100 x [1000 x double*]], [100 x [1000 x double*]]* %1, i64 0, i64 %36
  %38 = load i32, i32* %7, align 4
  %39 = sext i32 %38 to i64
  %40 = getelementptr inbounds [1000 x double*], [1000 x double*]* %37, i64 0, i64 %39
  %41 = load double*, double** %40, align 8
  %42 = call i32 (i8*, ...) @__isoc99_scanf(i8* getelementptr inbounds ([4 x i8], [4 x i8]* @.str.1, i64 0, i64 0), double* %41)
  br label %43

43:                                               ; preds = %25
  %44 = load i32, i32* %7, align 4
  %45 = add nsw i32 %44, 1
  store i32 %45, i32* %7, align 4
  br label %18

46:                                               ; preds = %18
  br label %47

47:                                               ; preds = %46
  %48 = load i32, i32* %6, align 4
  %49 = add nsw i32 %48, 1
  store i32 %49, i32* %6, align 4
  br label %9

50:                                               ; preds = %9
  store i32 0, i32* %6, align 4
  br label %51

51:                                               ; preds = %131, %50
  %52 = load i32, i32* %6, align 4
  %53 = load i32, i32* %4, align 4
  %54 = icmp slt i32 %52, %53
  br i1 %54, label %55, label %134

55:                                               ; preds = %51
  store double 0.000000e+00, double* %2, align 8
  store i32 0, i32* %7, align 4
  br label %56

56:                                               ; preds = %74, %55
  %57 = load i32, i32* %7, align 4
  %58 = load i32, i32* %6, align 4
  %59 = sext i32 %58 to i64
  %60 = getelementptr inbounds [100 x i32], [100 x i32]* %5, i64 0, i64 %59
  %61 = load i32, i32* %60, align 4
  %62 = icmp slt i32 %57, %61
  br i1 %62, label %63, label %77

63:                                               ; preds = %56
  %64 = load double, double* %2, align 8
  %65 = load i32, i32* %6, align 4
  %66 = sext i32 %65 to i64
  %67 = getelementptr inbounds [100 x [1000 x double*]], [100 x [1000 x double*]]* %1, i64 0, i64 %66
  %68 = load i32, i32* %7, align 4
  %69 = sext i32 %68 to i64
  %70 = getelementptr inbounds [1000 x double*], [1000 x double*]* %67, i64 0, i64 %69
  %71 = load double*, double** %70, align 8
  %72 = load double, double* %71, align 8
  %73 = fadd double %64, %72
  store double %73, double* %2, align 8
  br label %74

74:                                               ; preds = %63
  %75 = load i32, i32* %7, align 4
  %76 = add nsw i32 %75, 1
  store i32 %76, i32* %7, align 4
  br label %56

77:                                               ; preds = %56
  %78 = load double, double* %2, align 8
  %79 = load i32, i32* %6, align 4
  %80 = sext i32 %79 to i64
  %81 = getelementptr inbounds [100 x i32], [100 x i32]* %5, i64 0, i64 %80
  %82 = load i32, i32* %81, align 4
  %83 = sitofp i32 %82 to double
  %84 = fdiv double %78, %83
  store double %84, double* %2, align 8
  store double 0.000000e+00, double* %3, align 8
  store i32 0, i32* %7, align 4
  br label %85

85:                                               ; preds = %116, %77
  %86 = load i32, i32* %7, align 4
  %87 = load i32, i32* %6, align 4
  %88 = sext i32 %87 to i64
  %89 = getelementptr inbounds [100 x i32], [100 x i32]* %5, i64 0, i64 %88
  %90 = load i32, i32* %89, align 4
  %91 = icmp slt i32 %86, %90
  br i1 %91, label %92, label %119

92:                                               ; preds = %85
  %93 = load double, double* %3, align 8
  %94 = load i32, i32* %6, align 4
  %95 = sext i32 %94 to i64
  %96 = getelementptr inbounds [100 x [1000 x double*]], [100 x [1000 x double*]]* %1, i64 0, i64 %95
  %97 = load i32, i32* %7, align 4
  %98 = sext i32 %97 to i64
  %99 = getelementptr inbounds [1000 x double*], [1000 x double*]* %96, i64 0, i64 %98
  %100 = load double*, double** %99, align 8
  %101 = load double, double* %100, align 8
  %102 = load double, double* %2, align 8
  %103 = fsub double %101, %102
  %104 = load i32, i32* %6, align 4
  %105 = sext i32 %104 to i64
  %106 = getelementptr inbounds [100 x [1000 x double*]], [100 x [1000 x double*]]* %1, i64 0, i64 %105
  %107 = load i32, i32* %7, align 4
  %108 = sext i32 %107 to i64
  %109 = getelementptr inbounds [1000 x double*], [1000 x double*]* %106, i64 0, i64 %108
  %110 = load double*, double** %109, align 8
  %111 = load double, double* %110, align 8
  %112 = load double, double* %2, align 8
  %113 = fsub double %111, %112
  %114 = fmul double %103, %113
  %115 = fadd double %93, %114
  store double %115, double* %3, align 8
  br label %116

116:                                              ; preds = %92
  %117 = load i32, i32* %7, align 4
  %118 = add nsw i32 %117, 1
  store i32 %118, i32* %7, align 4
  br label %85

119:                                              ; preds = %85
  %120 = load double, double* %3, align 8
  %121 = load i32, i32* %6, align 4
  %122 = sext i32 %121 to i64
  %123 = getelementptr inbounds [100 x i32], [100 x i32]* %5, i64 0, i64 %122
  %124 = load i32, i32* %123, align 4
  %125 = sitofp i32 %124 to double
  %126 = fdiv double %120, %125
  store double %126, double* %3, align 8
  %127 = load double, double* %3, align 8
  %128 = call double @sqrt(double %127) #3
  store double %128, double* %3, align 8
  %129 = load double, double* %3, align 8
  %130 = call i32 (i8*, ...) @printf(i8* getelementptr inbounds ([6 x i8], [6 x i8]* @.str.2, i64 0, i64 0), double %129)
  br label %131

131:                                              ; preds = %119
  %132 = load i32, i32* %6, align 4
  %133 = add nsw i32 %132, 1
  store i32 %133, i32* %6, align 4
  br label %51

134:                                              ; preds = %51
  ret void
}

declare dso_local i32 @__isoc99_scanf(i8*, ...) #1

; Function Attrs: nounwind
declare dso_local noalias i8* @malloc(i64) #2

; Function Attrs: nounwind
declare dso_local double @sqrt(double) #2

declare dso_local i32 @printf(i8*, ...) #1


!llvm.module.flags = !{!0}
!llvm.ident = !{!1}

!0 = !{i32 1, !"wchar_size", i32 4}
!1 = !{!"clang version 10.0.0-4ubuntu1 "}
